target datalayout = "e-m:e-p270:32:32-p271:32:32-p272:64:64-i64:64-i128:128-f80:128-n8:16:32:64-S128"
target triple = "x86_64-pc-linux-gnu"

; Function Attrs: inlinehint mustprogress nounwind uwtable
define linkonce_odr noundef float @_ZSt4sqrtf(float noundef %0) #4 comdat {
  %2 = alloca float, align 4
  store float %0, ptr %2, align 4, !tbaa !50
  %3 = load float, ptr %2, align 4, !tbaa !50
  %4 = call float @sqrtf(float noundef %3) #5, !tbaa !36
  ret float %4
}

; Function Attrs: mustprogress nounwind uwtable
define linkonce_odr noundef float @_ZN3gmx6squareIfEET_S1_(float noundef %0) #2 comdat {
  %2 = alloca float, align 4
  store float %0, ptr %2, align 4, !tbaa !50
  %3 = load float, ptr %2, align 4, !tbaa !50
  %4 = load float, ptr %2, align 4, !tbaa !50
  %5 = fmul float %3, %4
  ret float %5
}

; Function Attrs: inlinehint mustprogress nounwind uwtable
define linkonce_odr noundef float @_ZSt3sinf(float noundef %0) #4 comdat {
  %2 = alloca float, align 4
  store float %0, ptr %2, align 4, !tbaa !50
  %3 = load float, ptr %2, align 4, !tbaa !50
  %4 = call float @sinf(float noundef %3) #5, !tbaa !36
  ret float %4
}

; Function Attrs: inlinehint mustprogress nounwind uwtable
define linkonce_odr noundef float @_ZSt3cosf(float noundef %0) #4 comdat {
  %2 = alloca float, align 4
  store float %0, ptr %2, align 4, !tbaa !50
  %3 = load float, ptr %2, align 4, !tbaa !50
  %4 = call float @cosf(float noundef %3) #5, !tbaa !36
  ret float %4
}

; Function Attrs: inlinehint mustprogress nounwind uwtable
define internal void @_ZL5svmulfPKfPf(float noundef %0, ptr noundef %1, ptr noundef %2) #4 {
  %4 = alloca float, align 4
  %5 = alloca ptr, align 8
  %6 = alloca ptr, align 8
  store float %0, ptr %4, align 4, !tbaa !50
  store ptr %1, ptr %5, align 8, !tbaa !48
  store ptr %2, ptr %6, align 8, !tbaa !48
  %7 = load float, ptr %4, align 4, !tbaa !50
  %8 = load ptr, ptr %5, align 8, !tbaa !48
  %9 = getelementptr inbounds float, ptr %8, i64 0
  %10 = load float, ptr %9, align 4, !tbaa !50
  %11 = fmul float %7, %10
  %12 = load ptr, ptr %6, align 8, !tbaa !48
  %13 = getelementptr inbounds float, ptr %12, i64 0
  store float %11, ptr %13, align 4, !tbaa !50
  %14 = load float, ptr %4, align 4, !tbaa !50
  %15 = load ptr, ptr %5, align 8, !tbaa !48
  %16 = getelementptr inbounds float, ptr %15, i64 1
  %17 = load float, ptr %16, align 4, !tbaa !50
  %18 = fmul float %14, %17
  %19 = load ptr, ptr %6, align 8, !tbaa !48
  %20 = getelementptr inbounds float, ptr %19, i64 1
  store float %18, ptr %20, align 4, !tbaa !50
  %21 = load float, ptr %4, align 4, !tbaa !50
  %22 = load ptr, ptr %5, align 8, !tbaa !48
  %23 = getelementptr inbounds float, ptr %22, i64 2
  %24 = load float, ptr %23, align 4, !tbaa !50
  %25 = fmul float %21, %24
  %26 = load ptr, ptr %6, align 8, !tbaa !48
  %27 = getelementptr inbounds float, ptr %26, i64 2
  store float %25, ptr %27, align 4, !tbaa !50
  ret void
}

; Function Attrs: mustprogress uwtable
define void @_Z14matrix_convertPA3_fPKfS2_(ptr noundef %0, ptr noundef %1, ptr noundef %2) #3 {
  %4 = alloca ptr, align 8
  %5 = alloca ptr, align 8
  %6 = alloca ptr, align 8
  %7 = alloca [3 x float], align 4
  store ptr %0, ptr %4, align 8, !tbaa !48
  store ptr %1, ptr %5, align 8, !tbaa !48
  store ptr %2, ptr %6, align 8, !tbaa !48
  call void @llvm.lifetime.start.p0(i64 12, ptr %7) #5
  %8 = load ptr, ptr %6, align 8, !tbaa !48
  %9 = getelementptr inbounds [3 x float], ptr %7, i64 0, i64 0
  call void @_ZL5svmulfPKfPf(float noundef 0x3F91DF46A0000000, ptr noundef %8, ptr noundef %9)
  %10 = load ptr, ptr %5, align 8, !tbaa !48
  %11 = getelementptr inbounds float, ptr %10, i64 0
  %12 = load float, ptr %11, align 4, !tbaa !50
  %13 = load ptr, ptr %4, align 8, !tbaa !48
  %14 = getelementptr inbounds [3 x float], ptr %13, i64 0
  %15 = getelementptr inbounds [3 x float], ptr %14, i64 0, i64 0
  store float %12, ptr %15, align 4, !tbaa !50
  %16 = load ptr, ptr %5, align 8, !tbaa !48
  %17 = getelementptr inbounds float, ptr %16, i64 1
  %18 = load float, ptr %17, align 4, !tbaa !50
  %19 = getelementptr inbounds [3 x float], ptr %7, i64 0, i64 2
  %20 = load float, ptr %19, align 4, !tbaa !50
  %21 = call noundef float @_ZSt3cosf(float noundef %20)
  %22 = fmul float %18, %21
  %23 = load ptr, ptr %4, align 8, !tbaa !48
  %24 = getelementptr inbounds [3 x float], ptr %23, i64 1
  %25 = getelementptr inbounds [3 x float], ptr %24, i64 0, i64 0
  store float %22, ptr %25, align 4, !tbaa !50
  %26 = load ptr, ptr %5, align 8, !tbaa !48
  %27 = getelementptr inbounds float, ptr %26, i64 1
  %28 = load float, ptr %27, align 4, !tbaa !50
  %29 = getelementptr inbounds [3 x float], ptr %7, i64 0, i64 2
  %30 = load float, ptr %29, align 4, !tbaa !50
  %31 = call noundef float @_ZSt3sinf(float noundef %30)
  %32 = fmul float %28, %31
  %33 = load ptr, ptr %4, align 8, !tbaa !48
  %34 = getelementptr inbounds [3 x float], ptr %33, i64 1
  %35 = getelementptr inbounds [3 x float], ptr %34, i64 0, i64 1
  store float %32, ptr %35, align 4, !tbaa !50
  %36 = load ptr, ptr %5, align 8, !tbaa !48
  %37 = getelementptr inbounds float, ptr %36, i64 2
  %38 = load float, ptr %37, align 4, !tbaa !50
  %39 = getelementptr inbounds [3 x float], ptr %7, i64 0, i64 1
  %40 = load float, ptr %39, align 4, !tbaa !50
  %41 = call noundef float @_ZSt3cosf(float noundef %40)
  %42 = fmul float %38, %41
  %43 = load ptr, ptr %4, align 8, !tbaa !48
  %44 = getelementptr inbounds [3 x float], ptr %43, i64 2
  %45 = getelementptr inbounds [3 x float], ptr %44, i64 0, i64 0
  store float %42, ptr %45, align 4, !tbaa !50
  %46 = load ptr, ptr %5, align 8, !tbaa !48
  %47 = getelementptr inbounds float, ptr %46, i64 2
  %48 = load float, ptr %47, align 4, !tbaa !50
  %49 = getelementptr inbounds [3 x float], ptr %7, i64 0, i64 0
  %50 = load float, ptr %49, align 4, !tbaa !50
  %51 = call noundef float @_ZSt3cosf(float noundef %50)
  %52 = getelementptr inbounds [3 x float], ptr %7, i64 0, i64 1
  %53 = load float, ptr %52, align 4, !tbaa !50
  %54 = call noundef float @_ZSt3cosf(float noundef %53)
  %55 = getelementptr inbounds [3 x float], ptr %7, i64 0, i64 2
  %56 = load float, ptr %55, align 4, !tbaa !50
  %57 = call noundef float @_ZSt3cosf(float noundef %56)
  %58 = fneg float %54
  %59 = call float @llvm.fmuladd.f32(float %58, float %57, float %51)
  %60 = fmul float %48, %59
  %61 = getelementptr inbounds [3 x float], ptr %7, i64 0, i64 2
  %62 = load float, ptr %61, align 4, !tbaa !50
  %63 = call noundef float @_ZSt3sinf(float noundef %62)
  %64 = fdiv float %60, %63
  %65 = load ptr, ptr %4, align 8, !tbaa !48
  %66 = getelementptr inbounds [3 x float], ptr %65, i64 2
  %67 = getelementptr inbounds [3 x float], ptr %66, i64 0, i64 1
  store float %64, ptr %67, align 4, !tbaa !50
  %68 = load ptr, ptr %5, align 8, !tbaa !48
  %69 = getelementptr inbounds float, ptr %68, i64 2
  %70 = load float, ptr %69, align 4, !tbaa !50
  %71 = call noundef float @_ZN3gmx6squareIfEET_S1_(float noundef %70)
  %72 = load ptr, ptr %4, align 8, !tbaa !48
  %73 = getelementptr inbounds [3 x float], ptr %72, i64 2
  %74 = getelementptr inbounds [3 x float], ptr %73, i64 0, i64 0
  %75 = load float, ptr %74, align 4, !tbaa !50
  %76 = load ptr, ptr %4, align 8, !tbaa !48
  %77 = getelementptr inbounds [3 x float], ptr %76, i64 2
  %78 = getelementptr inbounds [3 x float], ptr %77, i64 0, i64 0
  %79 = load float, ptr %78, align 4, !tbaa !50
  %80 = fneg float %75
  %81 = call float @llvm.fmuladd.f32(float %80, float %79, float %71)
  %82 = load ptr, ptr %4, align 8, !tbaa !48
  %83 = getelementptr inbounds [3 x float], ptr %82, i64 2
  %84 = getelementptr inbounds [3 x float], ptr %83, i64 0, i64 1
  %85 = load float, ptr %84, align 4, !tbaa !50
  %86 = load ptr, ptr %4, align 8, !tbaa !48
  %87 = getelementptr inbounds [3 x float], ptr %86, i64 2
  %88 = getelementptr inbounds [3 x float], ptr %87, i64 0, i64 1
  %89 = load float, ptr %88, align 4, !tbaa !50
  %90 = fneg float %85
  %91 = call float @llvm.fmuladd.f32(float %90, float %89, float %81)
  %92 = call noundef float @_ZSt4sqrtf(float noundef %91)
  %93 = load ptr, ptr %4, align 8, !tbaa !48
  %94 = getelementptr inbounds [3 x float], ptr %93, i64 2
  %95 = getelementptr inbounds [3 x float], ptr %94, i64 0, i64 2
  store float %92, ptr %95, align 4, !tbaa !50
  call void @llvm.lifetime.end.p0(i64 12, ptr %7) #5
  ret void
}