; Function Attrs: mustprogress nofree nounwind willreturn memory(write, argmem: readwrite) uwtable
define void @_Z14matrix_convertPA3_fPKfS2_(ptr noundef writeonly captures(none) initializes((0, 4), (12, 20), (24, 36)) %0, ptr noundef readonly captures(none) %1, ptr noundef readonly captures(none) %2) local_unnamed_addr #13 {
  %4 = load float, ptr %2, align 4, !tbaa !21
  %5 = fmul float %4, 0x3F91DF46A0000000
  %6 = getelementptr inbounds nuw i8, ptr %2, i64 4
  %7 = load float, ptr %6, align 4, !tbaa !21
  %8 = fmul float %7, 0x3F91DF46A0000000
  %9 = getelementptr inbounds nuw i8, ptr %2, i64 8
  %10 = load float, ptr %9, align 4, !tbaa !21
  %11 = fmul float %10, 0x3F91DF46A0000000
  %12 = load float, ptr %1, align 4, !tbaa !21
  store float %12, ptr %0, align 4, !tbaa !21
  %13 = getelementptr inbounds nuw i8, ptr %1, i64 4
  %14 = load float, ptr %13, align 4, !tbaa !21
  %15 = tail call noundef float @cosf(float noundef %11) #20, !tbaa !26
  %16 = fmul float %14, %15
  %17 = getelementptr inbounds nuw i8, ptr %0, i64 12
  store float %16, ptr %17, align 4, !tbaa !21
  %18 = load float, ptr %13, align 4, !tbaa !21
  %19 = tail call noundef float @sinf(float noundef %11) #20, !tbaa !26
  %20 = fmul float %18, %19
  %21 = getelementptr inbounds nuw i8, ptr %0, i64 16
  store float %20, ptr %21, align 4, !tbaa !21
  %22 = getelementptr inbounds nuw i8, ptr %1, i64 8
  %23 = load float, ptr %22, align 4, !tbaa !21
  %24 = tail call noundef float @cosf(float noundef %8) #20, !tbaa !26
  %25 = fmul float %23, %24
  %26 = getelementptr inbounds nuw i8, ptr %0, i64 24
  store float %25, ptr %26, align 4, !tbaa !21
  %27 = load float, ptr %22, align 4, !tbaa !21
  %28 = tail call noundef float @cosf(float noundef %5) #20, !tbaa !26
  %29 = tail call noundef float @cosf(float noundef %8) #20, !tbaa !26
  %30 = tail call noundef float @cosf(float noundef %11) #20, !tbaa !26
  %31 = fneg float %29
  %32 = tail call float @llvm.fmuladd.f32(float %31, float %30, float %28)
  %33 = fmul float %27, %32
  %34 = tail call noundef float @sinf(float noundef %11) #20, !tbaa !26
  %35 = fdiv float %33, %34
  %36 = getelementptr inbounds nuw i8, ptr %0, i64 28
  store float %35, ptr %36, align 4, !tbaa !21
  %37 = load float, ptr %22, align 4, !tbaa !21
  %38 = fmul float %37, %37
  %39 = fneg float %25
  %40 = tail call float @llvm.fmuladd.f32(float %39, float %25, float %38)
  %41 = fneg float %35
  %42 = tail call float @llvm.fmuladd.f32(float %41, float %35, float %40)
  %43 = tail call noundef float @sqrtf(float noundef %42) #20, !tbaa !26
  %44 = getelementptr inbounds nuw i8, ptr %0, i64 32
  store float %43, ptr %44, align 4, !tbaa !21
  ret void
}